	.file	"y.tab.c"
	.section	.rodata
	.align 32
	.type	yytranslate, @object
	.size	yytranslate, 283
yytranslate:
	.byte	0
	.byte	2
	.byte	2
	.byte	2
	.byte	2
	.byte	2
	.byte	2
	.byte	2
	.byte	2
	.byte	2
	.byte	2
	.byte	2
	.byte	2
	.byte	2
	.byte	2
	.byte	2
	.byte	2
	.byte	2
	.byte	2
	.byte	2
	.byte	2
	.byte	2
	.byte	2
	.byte	2
	.byte	2
	.byte	2
	.byte	2
	.byte	2
	.byte	2
	.byte	2
	.byte	2
	.byte	2
	.byte	2
	.byte	2
	.byte	2
	.byte	2
	.byte	2
	.byte	2
	.byte	2
	.byte	2
	.byte	29
	.byte	30
	.byte	39
	.byte	37
	.byte	31
	.byte	38
	.byte	2
	.byte	40
	.byte	2
	.byte	2
	.byte	2
	.byte	2
	.byte	2
	.byte	2
	.byte	2
	.byte	2
	.byte	2
	.byte	2
	.byte	28
	.byte	2
	.byte	35
	.byte	34
	.byte	36
	.byte	2
	.byte	2
	.byte	2
	.byte	2
	.byte	2
	.byte	2
	.byte	2
	.byte	2
	.byte	2
	.byte	2
	.byte	2
	.byte	2
	.byte	2
	.byte	2
	.byte	2
	.byte	2
	.byte	2
	.byte	2
	.byte	2
	.byte	2
	.byte	2
	.byte	2
	.byte	2
	.byte	2
	.byte	2
	.byte	2
	.byte	2
	.byte	2
	.byte	32
	.byte	2
	.byte	33
	.byte	2
	.byte	2
	.byte	2
	.byte	2
	.byte	2
	.byte	2
	.byte	2
	.byte	2
	.byte	2
	.byte	2
	.byte	2
	.byte	2
	.byte	2
	.byte	2
	.byte	2
	.byte	2
	.byte	2
	.byte	2
	.byte	2
	.byte	2
	.byte	2
	.byte	2
	.byte	2
	.byte	2
	.byte	2
	.byte	2
	.byte	2
	.byte	2
	.byte	2
	.byte	2
	.byte	2
	.byte	2
	.byte	2
	.byte	2
	.byte	2
	.byte	2
	.byte	2
	.byte	2
	.byte	2
	.byte	2
	.byte	2
	.byte	2
	.byte	2
	.byte	2
	.byte	2
	.byte	2
	.byte	2
	.byte	2
	.byte	2
	.byte	2
	.byte	2
	.byte	2
	.byte	2
	.byte	2
	.byte	2
	.byte	2
	.byte	2
	.byte	2
	.byte	2
	.byte	2
	.byte	2
	.byte	2
	.byte	2
	.byte	2
	.byte	2
	.byte	2
	.byte	2
	.byte	2
	.byte	2
	.byte	2
	.byte	2
	.byte	2
	.byte	2
	.byte	2
	.byte	2
	.byte	2
	.byte	2
	.byte	2
	.byte	2
	.byte	2
	.byte	2
	.byte	2
	.byte	2
	.byte	2
	.byte	2
	.byte	2
	.byte	2
	.byte	2
	.byte	2
	.byte	2
	.byte	2
	.byte	2
	.byte	2
	.byte	2
	.byte	2
	.byte	2
	.byte	2
	.byte	2
	.byte	2
	.byte	2
	.byte	2
	.byte	2
	.byte	2
	.byte	2
	.byte	2
	.byte	2
	.byte	2
	.byte	2
	.byte	2
	.byte	2
	.byte	2
	.byte	2
	.byte	2
	.byte	2
	.byte	2
	.byte	2
	.byte	2
	.byte	2
	.byte	2
	.byte	2
	.byte	2
	.byte	2
	.byte	2
	.byte	2
	.byte	2
	.byte	2
	.byte	2
	.byte	2
	.byte	2
	.byte	2
	.byte	2
	.byte	2
	.byte	2
	.byte	2
	.byte	2
	.byte	2
	.byte	2
	.byte	2
	.byte	2
	.byte	2
	.byte	2
	.byte	2
	.byte	2
	.byte	2
	.byte	2
	.byte	2
	.byte	2
	.byte	2
	.byte	2
	.byte	2
	.byte	2
	.byte	2
	.byte	2
	.byte	2
	.byte	2
	.byte	2
	.byte	2
	.byte	2
	.byte	2
	.byte	2
	.byte	2
	.byte	2
	.byte	1
	.byte	2
	.byte	3
	.byte	4
	.byte	5
	.byte	6
	.byte	7
	.byte	8
	.byte	9
	.byte	10
	.byte	11
	.byte	12
	.byte	13
	.byte	14
	.byte	15
	.byte	16
	.byte	17
	.byte	18
	.byte	19
	.byte	20
	.byte	21
	.byte	22
	.byte	23
	.byte	24
	.byte	25
	.byte	26
	.byte	27
	.align 32
	.type	yyprhs, @object
	.size	yyprhs, 78
yyprhs:
	.byte	0
	.byte	0
	.byte	3
	.byte	6
	.byte	10
	.byte	12
	.byte	14
	.byte	19
	.byte	20
	.byte	23
	.byte	35
	.byte	45
	.byte	46
	.byte	49
	.byte	50
	.byte	54
	.byte	58
	.byte	64
	.byte	68
	.byte	69
	.byte	71
	.byte	75
	.byte	77
	.byte	79
	.byte	81
	.byte	83
	.byte	84
	.byte	88
	.byte	90
	.byte	92
	.byte	94
	.byte	96
	.byte	98
	.byte	105
	.byte	112
	.byte	116
	.byte	117
	.byte	123
	.byte	127
	.byte	-127
	.byte	-122
	.byte	-117
	.byte	-116
	.byte	-113
	.byte	-112
	.byte	-108
	.byte	-105
	.byte	-103
	.byte	-101
	.byte	-98
	.byte	-96
	.byte	-94
	.byte	-90
	.byte	-88
	.byte	-84
	.byte	-82
	.byte	-78
	.byte	-74
	.byte	-70
	.byte	-66
	.byte	-62
	.byte	-58
	.byte	-56
	.byte	-52
	.byte	-48
	.byte	-46
	.byte	-42
	.byte	-38
	.byte	-35
	.byte	-32
	.byte	-30
	.byte	-28
	.byte	-26
	.byte	-24
	.byte	-22
	.byte	-16
	.byte	-11
	.byte	-9
	.align 32
	.type	yyrhs, @object
	.size	yyrhs, 251
yyrhs:
	.byte	42
	.byte	0
	.byte	-1
	.byte	43
	.byte	45
	.byte	-1
	.byte	64
	.byte	43
	.byte	45
	.byte	-1
	.byte	46
	.byte	-1
	.byte	44
	.byte	-1
	.byte	24
	.byte	28
	.byte	51
	.byte	64
	.byte	-1
	.byte	-1
	.byte	43
	.byte	45
	.byte	-1
	.byte	17
	.byte	24
	.byte	29
	.byte	47
	.byte	30
	.byte	28
	.byte	51
	.byte	64
	.byte	50
	.byte	14
	.byte	64
	.byte	-1
	.byte	17
	.byte	24
	.byte	29
	.byte	47
	.byte	30
	.byte	64
	.byte	50
	.byte	14
	.byte	64
	.byte	-1
	.byte	-1
	.byte	49
	.byte	48
	.byte	-1
	.byte	-1
	.byte	48
	.byte	31
	.byte	49
	.byte	-1
	.byte	24
	.byte	28
	.byte	51
	.byte	-1
	.byte	24
	.byte	28
	.byte	51
	.byte	64
	.byte	50
	.byte	-1
	.byte	54
	.byte	64
	.byte	53
	.byte	-1
	.byte	-1
	.byte	52
	.byte	-1
	.byte	32
	.byte	33
	.byte	51
	.byte	-1
	.byte	4
	.byte	-1
	.byte	3
	.byte	-1
	.byte	6
	.byte	-1
	.byte	5
	.byte	-1
	.byte	-1
	.byte	54
	.byte	64
	.byte	53
	.byte	-1
	.byte	55
	.byte	-1
	.byte	57
	.byte	-1
	.byte	58
	.byte	-1
	.byte	63
	.byte	-1
	.byte	60
	.byte	-1
	.byte	12
	.byte	65
	.byte	64
	.byte	50
	.byte	56
	.byte	14
	.byte	-1
	.byte	13
	.byte	12
	.byte	65
	.byte	64
	.byte	50
	.byte	56
	.byte	-1
	.byte	13
	.byte	64
	.byte	50
	.byte	-1
	.byte	-1
	.byte	10
	.byte	65
	.byte	64
	.byte	50
	.byte	11
	.byte	-1
	.byte	59
	.byte	34
	.byte	65
	.byte	-1
	.byte	24
	.byte	-1
	.byte	59
	.byte	32
	.byte	65
	.byte	33
	.byte	-1
	.byte	24
	.byte	29
	.byte	61
	.byte	30
	.byte	-1
	.byte	-1
	.byte	65
	.byte	62
	.byte	-1
	.byte	-1
	.byte	31
	.byte	65
	.byte	62
	.byte	-1
	.byte	16
	.byte	65
	.byte	-1
	.byte	16
	.byte	-1
	.byte	26
	.byte	-1
	.byte	26
	.byte	64
	.byte	-1
	.byte	66
	.byte	-1
	.byte	67
	.byte	-1
	.byte	66
	.byte	22
	.byte	67
	.byte	-1
	.byte	68
	.byte	-1
	.byte	67
	.byte	21
	.byte	68
	.byte	-1
	.byte	69
	.byte	-1
	.byte	68
	.byte	35
	.byte	69
	.byte	-1
	.byte	68
	.byte	36
	.byte	69
	.byte	-1
	.byte	68
	.byte	34
	.byte	69
	.byte	-1
	.byte	68
	.byte	19
	.byte	69
	.byte	-1
	.byte	68
	.byte	18
	.byte	69
	.byte	-1
	.byte	68
	.byte	20
	.byte	69
	.byte	-1
	.byte	70
	.byte	-1
	.byte	69
	.byte	37
	.byte	70
	.byte	-1
	.byte	69
	.byte	38
	.byte	70
	.byte	-1
	.byte	71
	.byte	-1
	.byte	70
	.byte	39
	.byte	71
	.byte	-1
	.byte	70
	.byte	40
	.byte	71
	.byte	-1
	.byte	9
	.byte	71
	.byte	-1
	.byte	38
	.byte	71
	.byte	-1
	.byte	72
	.byte	-1
	.byte	23
	.byte	-1
	.byte	25
	.byte	-1
	.byte	7
	.byte	-1
	.byte	8
	.byte	-1
	.byte	15
	.byte	32
	.byte	65
	.byte	33
	.byte	51
	.byte	-1
	.byte	24
	.byte	29
	.byte	61
	.byte	30
	.byte	-1
	.byte	59
	.byte	-1
	.byte	29
	.byte	65
	.byte	30
	.byte	-1
	.align 32
	.type	yyrline, @object
	.size	yyrline, 78
yyrline:
	.byte	0
	.byte	37
	.byte	37
	.byte	42
	.byte	45
	.byte	46
	.byte	48
	.byte	52
	.byte	53
	.byte	55
	.byte	66
	.byte	75
	.byte	76
	.byte	78
	.byte	79
	.byte	81
	.byte	85
	.byte	86
	.byte	87
	.byte	89
	.byte	90
	.byte	92
	.byte	93
	.byte	94
	.byte	95
	.byte	97
	.byte	98
	.byte	100
	.byte	101
	.byte	102
	.byte	103
	.byte	104
	.byte	106
	.byte	118
	.byte	-128
	.byte	-123
	.byte	-121
	.byte	-113
	.byte	-109
	.byte	-108
	.byte	-106
	.byte	-102
	.byte	-101
	.byte	-99
	.byte	-98
	.byte	-96
	.byte	-94
	.byte	-92
	.byte	-91
	.byte	-89
	.byte	-87
	.byte	-86
	.byte	-82
	.byte	-81
	.byte	-77
	.byte	-76
	.byte	-72
	.byte	-68
	.byte	-64
	.byte	-60
	.byte	-56
	.byte	-52
	.byte	-51
	.byte	-47
	.byte	-43
	.byte	-42
	.byte	-38
	.byte	-34
	.byte	-31
	.byte	-28
	.byte	-26
	.byte	-25
	.byte	-24
	.byte	-23
	.byte	-22
	.byte	-18
	.byte	-15
	.byte	-14
.LC0:
	.string	"$end"
.LC1:
	.string	"error"
.LC2:
	.string	"$undefined"
.LC3:
	.string	"TK_CHAR"
.LC4:
	.string	"TK_INT"
.LC5:
	.string	"TK_STRING"
.LC6:
	.string	"TK_BOOL"
.LC7:
	.string	"TK_TRUE"
.LC8:
	.string	"TK_FALSE"
.LC9:
	.string	"TK_NOT"
.LC10:
	.string	"TK_WHILE"
.LC11:
	.string	"TK_LOOP"
.LC12:
	.string	"TK_IF"
.LC13:
	.string	"TK_ELSE"
.LC14:
	.string	"TK_END"
.LC15:
	.string	"TK_NEW"
.LC16:
	.string	"TK_RET"
.LC17:
	.string	"TK_FUN"
.LC18:
	.string	"TK_GREATER_EQUAL"
.LC19:
	.string	"TK_LESS_EQUAL"
.LC20:
	.string	"TK_NOT_EQUAL"
.LC21:
	.string	"TK_AND"
.LC22:
	.string	"TK_OR"
.LC23:
	.string	"TK_NUMINT"
.LC24:
	.string	"TK_ID"
.LC25:
	.string	"TK_LITERAL_STRING"
.LC26:
	.string	"TK_LINE"
.LC27:
	.string	"ERROR"
.LC28:
	.string	"':'"
.LC29:
	.string	"'('"
.LC30:
	.string	"')'"
.LC31:
	.string	"','"
.LC32:
	.string	"'['"
.LC33:
	.string	"']'"
.LC34:
	.string	"'='"
.LC35:
	.string	"'<'"
.LC36:
	.string	"'>'"
.LC37:
	.string	"'+'"
.LC38:
	.string	"'-'"
.LC39:
	.string	"'*'"
.LC40:
	.string	"'/'"
.LC41:
	.string	"$accept"
.LC42:
	.string	"programa"
.LC43:
	.string	"decl"
.LC44:
	.string	"global"
.LC45:
	.string	"lista_decl"
.LC46:
	.string	"funcao"
.LC47:
	.string	"params"
.LC48:
	.string	"lista_parametro"
.LC49:
	.string	"parametro"
.LC50:
	.string	"entradas"
.LC51:
	.string	"tipo"
.LC52:
	.string	"tipobase"
.LC53:
	.string	"lista_comando"
.LC54:
	.string	"comando"
.LC55:
	.string	"cmdif"
.LC56:
	.string	"entradas_else"
.LC57:
	.string	"cmdwhile"
.LC58:
	.string	"cmdatrib"
.LC59:
	.string	"var"
.LC60:
	.string	"chamada"
.LC61:
	.string	"lista_exp"
.LC62:
	.string	"sublista_exp"
.LC63:
	.string	"cmdreturn"
.LC64:
	.string	"nl"
.LC65:
	.string	"exp"
.LC66:
	.string	"exp_or"
.LC67:
	.string	"exp_and"
.LC68:
	.string	"exp_less"
.LC69:
	.string	"exp_add"
.LC70:
	.string	"exp_times"
.LC71:
	.string	"exp_un"
.LC72:
	.string	"exp_fin"
	.align 32
	.type	yytname, @object
	.size	yytname, 592
yytname:
	.quad	.LC0
	.quad	.LC1
	.quad	.LC2
	.quad	.LC3
	.quad	.LC4
	.quad	.LC5
	.quad	.LC6
	.quad	.LC7
	.quad	.LC8
	.quad	.LC9
	.quad	.LC10
	.quad	.LC11
	.quad	.LC12
	.quad	.LC13
	.quad	.LC14
	.quad	.LC15
	.quad	.LC16
	.quad	.LC17
	.quad	.LC18
	.quad	.LC19
	.quad	.LC20
	.quad	.LC21
	.quad	.LC22
	.quad	.LC23
	.quad	.LC24
	.quad	.LC25
	.quad	.LC26
	.quad	.LC27
	.quad	.LC28
	.quad	.LC29
	.quad	.LC30
	.quad	.LC31
	.quad	.LC32
	.quad	.LC33
	.quad	.LC34
	.quad	.LC35
	.quad	.LC36
	.quad	.LC37
	.quad	.LC38
	.quad	.LC39
	.quad	.LC40
	.quad	.LC41
	.quad	.LC42
	.quad	.LC43
	.quad	.LC44
	.quad	.LC45
	.quad	.LC46
	.quad	.LC47
	.quad	.LC48
	.quad	.LC49
	.quad	.LC50
	.quad	.LC51
	.quad	.LC52
	.quad	.LC53
	.quad	.LC54
	.quad	.LC55
	.quad	.LC56
	.quad	.LC57
	.quad	.LC58
	.quad	.LC59
	.quad	.LC60
	.quad	.LC61
	.quad	.LC62
	.quad	.LC63
	.quad	.LC64
	.quad	.LC65
	.quad	.LC66
	.quad	.LC67
	.quad	.LC68
	.quad	.LC69
	.quad	.LC70
	.quad	.LC71
	.quad	.LC72
	.quad	0
	.align 32
	.type	yyr1, @object
	.size	yyr1, 78
yyr1:
	.byte	0
	.byte	41
	.byte	42
	.byte	42
	.byte	43
	.byte	43
	.byte	44
	.byte	45
	.byte	45
	.byte	46
	.byte	46
	.byte	47
	.byte	47
	.byte	48
	.byte	48
	.byte	49
	.byte	50
	.byte	50
	.byte	50
	.byte	51
	.byte	51
	.byte	52
	.byte	52
	.byte	52
	.byte	52
	.byte	53
	.byte	53
	.byte	54
	.byte	54
	.byte	54
	.byte	54
	.byte	54
	.byte	55
	.byte	56
	.byte	56
	.byte	56
	.byte	57
	.byte	58
	.byte	59
	.byte	59
	.byte	60
	.byte	61
	.byte	61
	.byte	62
	.byte	62
	.byte	63
	.byte	63
	.byte	64
	.byte	64
	.byte	65
	.byte	66
	.byte	66
	.byte	67
	.byte	67
	.byte	68
	.byte	68
	.byte	68
	.byte	68
	.byte	68
	.byte	68
	.byte	68
	.byte	69
	.byte	69
	.byte	69
	.byte	70
	.byte	70
	.byte	70
	.byte	71
	.byte	71
	.byte	71
	.byte	72
	.byte	72
	.byte	72
	.byte	72
	.byte	72
	.byte	72
	.byte	72
	.byte	72
	.align 32
	.type	yyr2, @object
	.size	yyr2, 78
yyr2:
	.byte	0
	.byte	2
	.byte	2
	.byte	3
	.byte	1
	.byte	1
	.byte	4
	.byte	0
	.byte	2
	.byte	11
	.byte	9
	.byte	0
	.byte	2
	.byte	0
	.byte	3
	.byte	3
	.byte	5
	.byte	3
	.byte	0
	.byte	1
	.byte	3
	.byte	1
	.byte	1
	.byte	1
	.byte	1
	.byte	0
	.byte	3
	.byte	1
	.byte	1
	.byte	1
	.byte	1
	.byte	1
	.byte	6
	.byte	6
	.byte	3
	.byte	0
	.byte	5
	.byte	3
	.byte	1
	.byte	4
	.byte	4
	.byte	0
	.byte	2
	.byte	0
	.byte	3
	.byte	2
	.byte	1
	.byte	1
	.byte	2
	.byte	1
	.byte	1
	.byte	3
	.byte	1
	.byte	3
	.byte	1
	.byte	3
	.byte	3
	.byte	3
	.byte	3
	.byte	3
	.byte	3
	.byte	1
	.byte	3
	.byte	3
	.byte	1
	.byte	3
	.byte	3
	.byte	2
	.byte	2
	.byte	1
	.byte	1
	.byte	1
	.byte	1
	.byte	1
	.byte	5
	.byte	4
	.byte	1
	.byte	3
	.align 32
	.type	yydefact, @object
	.size	yydefact, 152
yydefact:
	.byte	0
	.byte	0
	.byte	0
	.byte	47
	.byte	0
	.byte	7
	.byte	5
	.byte	4
	.byte	0
	.byte	0
	.byte	0
	.byte	48
	.byte	1
	.byte	7
	.byte	2
	.byte	7
	.byte	11
	.byte	22
	.byte	21
	.byte	24
	.byte	23
	.byte	0
	.byte	0
	.byte	19
	.byte	8
	.byte	3
	.byte	0
	.byte	0
	.byte	13
	.byte	0
	.byte	6
	.byte	0
	.byte	0
	.byte	12
	.byte	20
	.byte	15
	.byte	0
	.byte	18
	.byte	0
	.byte	0
	.byte	0
	.byte	0
	.byte	46
	.byte	38
	.byte	0
	.byte	0
	.byte	27
	.byte	28
	.byte	29
	.byte	0
	.byte	31
	.byte	30
	.byte	14
	.byte	18
	.byte	72
	.byte	73
	.byte	0
	.byte	0
	.byte	70
	.byte	38
	.byte	71
	.byte	0
	.byte	0
	.byte	76
	.byte	0
	.byte	49
	.byte	50
	.byte	52
	.byte	54
	.byte	61
	.byte	64
	.byte	69
	.byte	0
	.byte	45
	.byte	0
	.byte	41
	.byte	0
	.byte	25
	.byte	0
	.byte	0
	.byte	0
	.byte	67
	.byte	0
	.byte	41
	.byte	0
	.byte	68
	.byte	18
	.byte	0
	.byte	0
	.byte	0
	.byte	0
	.byte	0
	.byte	0
	.byte	0
	.byte	0
	.byte	0
	.byte	0
	.byte	0
	.byte	0
	.byte	18
	.byte	0
	.byte	0
	.byte	43
	.byte	10
	.byte	38
	.byte	17
	.byte	0
	.byte	0
	.byte	37
	.byte	0
	.byte	0
	.byte	0
	.byte	77
	.byte	0
	.byte	51
	.byte	53
	.byte	59
	.byte	58
	.byte	60
	.byte	57
	.byte	55
	.byte	56
	.byte	62
	.byte	63
	.byte	65
	.byte	66
	.byte	35
	.byte	18
	.byte	40
	.byte	0
	.byte	42
	.byte	25
	.byte	39
	.byte	9
	.byte	0
	.byte	75
	.byte	36
	.byte	0
	.byte	0
	.byte	16
	.byte	43
	.byte	26
	.byte	74
	.byte	0
	.byte	18
	.byte	32
	.byte	44
	.byte	0
	.byte	34
	.byte	18
	.byte	35
	.byte	33
	.align 32
	.type	yydefgoto, @object
	.size	yydefgoto, 64
yydefgoto:
	.value	-1
	.value	4
	.value	13
	.value	6
	.value	14
	.value	7
	.value	27
	.value	33
	.value	28
	.value	44
	.value	22
	.value	23
	.value	105
	.value	45
	.value	46
	.value	138
	.value	47
	.value	48
	.value	63
	.value	50
	.value	101
	.value	130
	.value	51
	.value	8
	.value	102
	.value	65
	.value	66
	.value	67
	.value	68
	.value	69
	.value	70
	.value	71
	.align 32
	.type	yypact, @object
	.size	yypact, 152
yypact:
	.byte	51
	.byte	-9
	.byte	-7
	.byte	5
	.byte	37
	.byte	22
	.byte	-75
	.byte	-75
	.byte	22
	.byte	11
	.byte	20
	.byte	-75
	.byte	-75
	.byte	22
	.byte	-75
	.byte	22
	.byte	35
	.byte	-75
	.byte	-75
	.byte	-75
	.byte	-75
	.byte	34
	.byte	5
	.byte	-75
	.byte	-75
	.byte	-75
	.byte	16
	.byte	42
	.byte	-75
	.byte	20
	.byte	-75
	.byte	20
	.byte	17
	.byte	45
	.byte	-75
	.byte	-75
	.byte	20
	.byte	-4
	.byte	35
	.byte	5
	.byte	102
	.byte	102
	.byte	102
	.byte	-18
	.byte	64
	.byte	5
	.byte	-75
	.byte	-75
	.byte	-75
	.byte	24
	.byte	-75
	.byte	-75
	.byte	-75
	.byte	-4
	.byte	-75
	.byte	-75
	.byte	102
	.byte	60
	.byte	-75
	.byte	69
	.byte	-75
	.byte	102
	.byte	102
	.byte	67
	.byte	5
	.byte	78
	.byte	81
	.byte	46
	.byte	52
	.byte	15
	.byte	-75
	.byte	-75
	.byte	5
	.byte	-75
	.byte	20
	.byte	102
	.byte	5
	.byte	6
	.byte	102
	.byte	102
	.byte	90
	.byte	-75
	.byte	102
	.byte	102
	.byte	75
	.byte	-75
	.byte	-4
	.byte	102
	.byte	102
	.byte	102
	.byte	102
	.byte	102
	.byte	102
	.byte	102
	.byte	102
	.byte	102
	.byte	102
	.byte	102
	.byte	102
	.byte	-4
	.byte	5
	.byte	82
	.byte	83
	.byte	-75
	.byte	86
	.byte	-75
	.byte	5
	.byte	85
	.byte	-75
	.byte	5
	.byte	87
	.byte	89
	.byte	-75
	.byte	105
	.byte	81
	.byte	46
	.byte	52
	.byte	52
	.byte	52
	.byte	52
	.byte	52
	.byte	52
	.byte	15
	.byte	15
	.byte	-75
	.byte	-75
	.byte	109
	.byte	-4
	.byte	-75
	.byte	102
	.byte	-75
	.byte	6
	.byte	-75
	.byte	-75
	.byte	20
	.byte	-75
	.byte	-75
	.byte	2
	.byte	110
	.byte	-75
	.byte	83
	.byte	-75
	.byte	-75
	.byte	102
	.byte	-4
	.byte	-75
	.byte	-75
	.byte	5
	.byte	-75
	.byte	-4
	.byte	109
	.byte	-75
	.align 32
	.type	yypgoto, @object
	.size	yypgoto, 32
yypgoto:
	.byte	-75
	.byte	-75
	.byte	27
	.byte	-75
	.byte	47
	.byte	-75
	.byte	-75
	.byte	-75
	.byte	91
	.byte	-48
	.byte	-27
	.byte	-75
	.byte	-1
	.byte	-74
	.byte	-75
	.byte	-22
	.byte	-75
	.byte	-75
	.byte	-36
	.byte	-75
	.byte	40
	.byte	1
	.byte	-75
	.byte	-3
	.byte	-8
	.byte	-75
	.byte	49
	.byte	44
	.byte	-6
	.byte	-2
	.byte	-49
	.byte	-75
	.align 32
	.type	yytable, @object
	.size	yytable, 145
yytable:
	.byte	11
	.byte	49
	.byte	34
	.byte	106
	.byte	35
	.byte	80
	.byte	40
	.byte	81
	.byte	41
	.byte	39
	.byte	74
	.byte	75
	.byte	42
	.byte	85
	.byte	-113
	.byte	9
	.byte	40
	.byte	49
	.byte	41
	.byte	30
	.byte	43
	.byte	10
	.byte	42
	.byte	17
	.byte	18
	.byte	19
	.byte	20
	.byte	5
	.byte	3
	.byte	37
	.byte	104
	.byte	3
	.byte	64
	.byte	72
	.byte	73
	.byte	15
	.byte	53
	.byte	12
	.byte	113
	.byte	1
	.byte	16
	.byte	49
	.byte	77
	.byte	3
	.byte	31
	.byte	36
	.byte	2
	.byte	100
	.byte	124
	.byte	125
	.byte	49
	.byte	126
	.byte	21
	.byte	84
	.byte	97
	.byte	98
	.byte	78
	.byte	106
	.byte	79
	.byte	26
	.byte	24
	.byte	86
	.byte	25
	.byte	49
	.byte	89
	.byte	90
	.byte	91
	.byte	29
	.byte	1
	.byte	99
	.byte	107
	.byte	108
	.byte	32
	.byte	103
	.byte	110
	.byte	2
	.byte	38
	.byte	3
	.byte	76
	.byte	-117
	.byte	92
	.byte	93
	.byte	94
	.byte	116
	.byte	117
	.byte	118
	.byte	119
	.byte	120
	.byte	121
	.byte	95
	.byte	96
	.byte	49
	.byte	82
	.byte	122
	.byte	123
	.byte	49
	.byte	-108
	.byte	127
	.byte	83
	.byte	78
	.byte	87
	.byte	-106
	.byte	88
	.byte	-125
	.byte	109
	.byte	112
	.byte	-123
	.byte	-114
	.byte	49
	.byte	54
	.byte	55
	.byte	56
	.byte	-128
	.byte	49
	.byte	-127
	.byte	75
	.byte	-120
	.byte	57
	.byte	-124
	.byte	-121
	.byte	-122
	.byte	-116
	.byte	-119
	.byte	111
	.byte	-111
	.byte	58
	.byte	59
	.byte	60
	.byte	-105
	.byte	52
	.byte	-115
	.byte	61
	.byte	115
	.byte	0
	.byte	-112
	.byte	-109
	.byte	114
	.byte	0
	.byte	0
	.byte	0
	.byte	62
	.byte	-110
	.byte	0
	.byte	0
	.byte	-107
	.align 32
	.type	yycheck, @object
	.size	yycheck, 290
yycheck:
	.value	3
	.value	37
	.value	29
	.value	77
	.value	31
	.value	53
	.value	10
	.value	56
	.value	12
	.value	36
	.value	28
	.value	29
	.value	16
	.value	62
	.value	12
	.value	24
	.value	10
	.value	53
	.value	12
	.value	22
	.value	24
	.value	28
	.value	16
	.value	3
	.value	4
	.value	5
	.value	6
	.value	0
	.value	26
	.value	32
	.value	24
	.value	26
	.value	40
	.value	41
	.value	42
	.value	8
	.value	39
	.value	0
	.value	86
	.value	17
	.value	29
	.value	77
	.value	45
	.value	26
	.value	28
	.value	28
	.value	24
	.value	74
	.value	97
	.value	98
	.value	86
	.value	99
	.value	32
	.value	61
	.value	39
	.value	40
	.value	32
	.value	131
	.value	34
	.value	24
	.value	13
	.value	64
	.value	15
	.value	99
	.value	18
	.value	19
	.value	20
	.value	33
	.value	17
	.value	72
	.value	78
	.value	79
	.value	30
	.value	76
	.value	82
	.value	24
	.value	31
	.value	26
	.value	14
	.value	127
	.value	34
	.value	35
	.value	36
	.value	89
	.value	90
	.value	91
	.value	92
	.value	93
	.value	94
	.value	37
	.value	38
	.value	127
	.value	32
	.value	95
	.value	96
	.value	131
	.value	144
	.value	100
	.value	29
	.value	32
	.value	22
	.value	149
	.value	21
	.value	106
	.value	14
	.value	30
	.value	109
	.value	134
	.value	144
	.value	7
	.value	8
	.value	9
	.value	30
	.value	149
	.value	31
	.value	29
	.value	11
	.value	15
	.value	33
	.value	30
	.value	33
	.value	129
	.value	13
	.value	83
	.value	14
	.value	23
	.value	24
	.value	25
	.value	150
	.value	38
	.value	131
	.value	29
	.value	88
	.value	-1
	.value	137
	.value	143
	.value	87
	.value	-1
	.value	-1
	.value	-1
	.value	38
	.value	140
	.value	-1
	.value	-1
	.value	147
	.align 32
	.type	yystos, @object
	.size	yystos, 152
yystos:
	.byte	0
	.byte	17
	.byte	24
	.byte	26
	.byte	42
	.byte	43
	.byte	44
	.byte	46
	.byte	64
	.byte	24
	.byte	28
	.byte	64
	.byte	0
	.byte	43
	.byte	45
	.byte	43
	.byte	29
	.byte	3
	.byte	4
	.byte	5
	.byte	6
	.byte	32
	.byte	51
	.byte	52
	.byte	45
	.byte	45
	.byte	24
	.byte	47
	.byte	49
	.byte	33
	.byte	64
	.byte	28
	.byte	30
	.byte	48
	.byte	51
	.byte	51
	.byte	28
	.byte	64
	.byte	31
	.byte	51
	.byte	10
	.byte	12
	.byte	16
	.byte	24
	.byte	50
	.byte	54
	.byte	55
	.byte	57
	.byte	58
	.byte	59
	.byte	60
	.byte	63
	.byte	49
	.byte	64
	.byte	7
	.byte	8
	.byte	9
	.byte	15
	.byte	23
	.byte	24
	.byte	25
	.byte	29
	.byte	38
	.byte	59
	.byte	65
	.byte	66
	.byte	67
	.byte	68
	.byte	69
	.byte	70
	.byte	71
	.byte	72
	.byte	65
	.byte	65
	.byte	28
	.byte	29
	.byte	14
	.byte	64
	.byte	32
	.byte	34
	.byte	50
	.byte	71
	.byte	32
	.byte	29
	.byte	65
	.byte	71
	.byte	64
	.byte	22
	.byte	21
	.byte	18
	.byte	19
	.byte	20
	.byte	34
	.byte	35
	.byte	36
	.byte	37
	.byte	38
	.byte	39
	.byte	40
	.byte	64
	.byte	51
	.byte	61
	.byte	65
	.byte	64
	.byte	24
	.byte	53
	.byte	54
	.byte	65
	.byte	65
	.byte	14
	.byte	65
	.byte	61
	.byte	30
	.byte	50
	.byte	67
	.byte	68
	.byte	69
	.byte	69
	.byte	69
	.byte	69
	.byte	69
	.byte	69
	.byte	70
	.byte	70
	.byte	71
	.byte	71
	.byte	50
	.byte	64
	.byte	30
	.byte	31
	.byte	62
	.byte	64
	.byte	33
	.byte	64
	.byte	33
	.byte	30
	.byte	11
	.byte	13
	.byte	56
	.byte	50
	.byte	65
	.byte	53
	.byte	51
	.byte	12
	.byte	64
	.byte	14
	.byte	62
	.byte	65
	.byte	50
	.byte	64
	.byte	50
	.byte	56
	.text
	.type	yy_symbol_value_print, @function
yy_symbol_value_print:
.LFB0:
	.cfi_startproc
	pushq	%rbp
	.cfi_def_cfa_offset 16
	.cfi_offset 6, -16
	movq	%rsp, %rbp
	.cfi_def_cfa_register 6
	movq	%rdi, -8(%rbp)
	movl	%esi, -12(%rbp)
	movq	%rdx, -24(%rbp)
	cmpq	$0, -24(%rbp)
	nop
	popq	%rbp
	.cfi_def_cfa 7, 8
	ret
	.cfi_endproc
.LFE0:
	.size	yy_symbol_value_print, .-yy_symbol_value_print
	.section	.rodata
.LC73:
	.string	"token %s ("
.LC74:
	.string	"nterm %s ("
	.text
	.type	yy_symbol_print, @function
yy_symbol_print:
.LFB1:
	.cfi_startproc
	pushq	%rbp
	.cfi_def_cfa_offset 16
	.cfi_offset 6, -16
	movq	%rsp, %rbp
	.cfi_def_cfa_register 6
	subq	$32, %rsp
	movq	%rdi, -8(%rbp)
	movl	%esi, -12(%rbp)
	movq	%rdx, -24(%rbp)
	cmpl	$40, -12(%rbp)
	jg	.L5
	movl	-12(%rbp), %eax
	cltq
	movq	yytname(,%rax,8), %rdx
	movq	-8(%rbp), %rax
	movl	$.LC73, %esi
	movq	%rax, %rdi
	movl	$0, %eax
	call	fprintf
	jmp	.L6
.L5:
	movl	-12(%rbp), %eax
	cltq
	movq	yytname(,%rax,8), %rdx
	movq	-8(%rbp), %rax
	movl	$.LC74, %esi
	movq	%rax, %rdi
	movl	$0, %eax
	call	fprintf
.L6:
	movq	-24(%rbp), %rdx
	movl	-12(%rbp), %ecx
	movq	-8(%rbp), %rax
	movl	%ecx, %esi
	movq	%rax, %rdi
	call	yy_symbol_value_print
	movq	-8(%rbp), %rax
	movq	%rax, %rsi
	movl	$41, %edi
	call	fputc
	leave
	.cfi_def_cfa 7, 8
	ret
	.cfi_endproc
.LFE1:
	.size	yy_symbol_print, .-yy_symbol_print
	.section	.rodata
.LC75:
	.string	"Stack now"
.LC76:
	.string	" %d"
	.text
	.type	yy_stack_print, @function
yy_stack_print:
.LFB2:
	.cfi_startproc
	pushq	%rbp
	.cfi_def_cfa_offset 16
	.cfi_offset 6, -16
	movq	%rsp, %rbp
	.cfi_def_cfa_register 6
	subq	$32, %rsp
	movq	%rdi, -24(%rbp)
	movq	%rsi, -32(%rbp)
	movq	stderr(%rip), %rax
	movq	%rax, %rcx
	movl	$9, %edx
	movl	$1, %esi
	movl	$.LC75, %edi
	call	fwrite
	jmp	.L8
.L9:
	movq	-24(%rbp), %rax
	movzwl	(%rax), %eax
	cwtl
	movl	%eax, -4(%rbp)
	movq	stderr(%rip), %rax
	movl	-4(%rbp), %edx
	movl	$.LC76, %esi
	movq	%rax, %rdi
	movl	$0, %eax
	call	fprintf
	addq	$2, -24(%rbp)
.L8:
	movq	-24(%rbp), %rax
	cmpq	-32(%rbp), %rax
	jbe	.L9
	movq	stderr(%rip), %rax
	movq	%rax, %rsi
	movl	$10, %edi
	call	fputc
	leave
	.cfi_def_cfa 7, 8
	ret
	.cfi_endproc
.LFE2:
	.size	yy_stack_print, .-yy_stack_print
	.section	.rodata
	.align 8
.LC77:
	.string	"Reducing stack by rule %d (line %lu):\n"
.LC78:
	.string	"   $%d = "
	.text
	.type	yy_reduce_print, @function
yy_reduce_print:
.LFB3:
	.cfi_startproc
	pushq	%rbp
	.cfi_def_cfa_offset 16
	.cfi_offset 6, -16
	movq	%rsp, %rbp
	.cfi_def_cfa_register 6
	subq	$32, %rsp
	movq	%rdi, -24(%rbp)
	movl	%esi, -28(%rbp)
	movl	-28(%rbp), %eax
	cltq
	movzbl	yyr2(%rax), %eax
	movzbl	%al, %eax
	movl	%eax, -12(%rbp)
	movl	-28(%rbp), %eax
	cltq
	movzbl	yyrline(%rax), %eax
	movzbl	%al, %eax
	movq	%rax, -8(%rbp)
	movl	-28(%rbp), %eax
	leal	-1(%rax), %esi
	movq	stderr(%rip), %rax
	movq	-8(%rbp), %rdx
	movq	%rdx, %rcx
	movl	%esi, %edx
	movl	$.LC77, %esi
	movq	%rax, %rdi
	movl	$0, %eax
	call	fprintf
	movl	$0, -16(%rbp)
	jmp	.L11
.L12:
	movl	-16(%rbp), %eax
	leal	1(%rax), %edx
	movq	stderr(%rip), %rax
	movl	$.LC78, %esi
	movq	%rax, %rdi
	movl	$0, %eax
	call	fprintf
	movl	-16(%rbp), %eax
	addl	$1, %eax
	subl	-12(%rbp), %eax
	movslq	%eax, %rdx
	movq	%rdx, %rax
	addq	%rax, %rax
	addq	%rdx, %rax
	salq	$3, %rax
	movq	%rax, %rdx
	movq	-24(%rbp), %rax
	addq	%rax, %rdx
	movl	-28(%rbp), %eax
	cltq
	movzbl	yyprhs(%rax), %eax
	movzbl	%al, %ecx
	movl	-16(%rbp), %eax
	addl	%ecx, %eax
	cltq
	movzbl	yyrhs(%rax), %eax
	movsbl	%al, %ecx
	movq	stderr(%rip), %rax
	movl	%ecx, %esi
	movq	%rax, %rdi
	call	yy_symbol_print
	movq	stderr(%rip), %rax
	movq	%rax, %rsi
	movl	$10, %edi
	call	fputc
	addl	$1, -16(%rbp)
.L11:
	movl	-16(%rbp), %eax
	cmpl	-12(%rbp), %eax
	jl	.L12
	leave
	.cfi_def_cfa 7, 8
	ret
	.cfi_endproc
.LFE3:
	.size	yy_reduce_print, .-yy_reduce_print
	.comm	yydebug,4,4
	.section	.rodata
.LC79:
	.string	"Deleting"
.LC80:
	.string	"%s "
	.text
	.type	yydestruct, @function
yydestruct:
.LFB4:
	.cfi_startproc
	pushq	%rbp
	.cfi_def_cfa_offset 16
	.cfi_offset 6, -16
	movq	%rsp, %rbp
	.cfi_def_cfa_register 6
	subq	$32, %rsp
	movq	%rdi, -8(%rbp)
	movl	%esi, -12(%rbp)
	movq	%rdx, -24(%rbp)
	cmpq	$0, -8(%rbp)
	jne	.L14
	movq	$.LC79, -8(%rbp)
.L14:
	movl	yydebug(%rip), %eax
	testl	%eax, %eax
	je	.L16
	movq	stderr(%rip), %rax
	movq	-8(%rbp), %rdx
	movl	$.LC80, %esi
	movq	%rax, %rdi
	movl	$0, %eax
	call	fprintf
	movq	stderr(%rip), %rax
	movq	-24(%rbp), %rdx
	movl	-12(%rbp), %ecx
	movl	%ecx, %esi
	movq	%rax, %rdi
	call	yy_symbol_print
	movq	stderr(%rip), %rax
	movq	%rax, %rsi
	movl	$10, %edi
	call	fputc
.L16:
	nop
.L13:
	leave
	.cfi_def_cfa 7, 8
	ret
	.cfi_endproc
.LFE4:
	.size	yydestruct, .-yydestruct
	.comm	yychar,4,4
	.comm	yylval,24,16
	.comm	yynerrs,4,4
	.section	.rodata
.LC81:
	.string	"Starting parse\n"
.LC82:
	.string	"Stack size increased to %lu\n"
.LC83:
	.string	"Entering state %d\n"
.LC84:
	.string	"Reading a token: "
.LC85:
	.string	"Now at end of input.\n"
.LC86:
	.string	"Next token is"
.LC87:
	.string	"Shifting"
.LC88:
	.string	"-> $$ ="
.LC89:
	.string	"syntax error"
.LC90:
	.string	"Error: discarding"
.LC91:
	.string	"Error: popping"
.LC92:
	.string	"memory exhausted"
.LC93:
	.string	"Cleanup: discarding lookahead"
.LC94:
	.string	"Cleanup: popping"
	.text
	.globl	yyparse
	.type	yyparse, @function
yyparse:
.LFB5:
	.cfi_startproc
	pushq	%rbp
	.cfi_def_cfa_offset 16
	.cfi_offset 6, -16
	movq	%rsp, %rbp
	.cfi_def_cfa_register 6
	subq	$5424, %rsp
	movl	$0, -5380(%rbp)
	movl	$0, -5384(%rbp)
	leaq	-5200(%rbp), %rax
	movq	%rax, -5376(%rbp)
	leaq	-4800(%rbp), %rax
	movq	%rax, -5360(%rbp)
	movq	$200, -5344(%rbp)
	movl	yydebug(%rip), %eax
	testl	%eax, %eax
	je	.L18
	movq	stderr(%rip), %rax
	movq	%rax, %rcx
	movl	$15, %edx
	movl	$1, %esi
	movl	$.LC81, %edi
	call	fwrite
.L18:
	movl	$0, -5400(%rbp)
	movl	$0, -5396(%rbp)
	movl	$0, yynerrs(%rip)
	movl	$-2, yychar(%rip)
	movq	-5376(%rbp), %rax
	movq	%rax, -5368(%rbp)
	movq	-5360(%rbp), %rax
	movq	%rax, -5352(%rbp)
	jmp	.L19
.L20:
	addq	$2, -5368(%rbp)
.L19:
	movl	-5400(%rbp), %eax
	movl	%eax, %edx
	movq	-5368(%rbp), %rax
	movw	%dx, (%rax)
	movq	-5344(%rbp), %rax
	subq	$1, %rax
	leaq	(%rax,%rax), %rdx
	movq	-5376(%rbp), %rax
	addq	%rdx, %rax
	cmpq	-5368(%rbp), %rax
	ja	.L21
	movq	-5368(%rbp), %rdx
	movq	-5376(%rbp), %rax
	movq	%rdx, %rcx
	subq	%rax, %rcx
	movq	%rcx, %rax
	sarq	%rax
	addq	$1, %rax
	movq	%rax, -5336(%rbp)
	cmpq	$9999, -5344(%rbp)
	ja	.L155
.L22:
	salq	-5344(%rbp)
	cmpq	$10000, -5344(%rbp)
	jbe	.L24
	movq	$10000, -5344(%rbp)
.L24:
	movq	-5376(%rbp), %rax
	movq	%rax, -5328(%rbp)
	movq	-5344(%rbp), %rdx
	movq	%rdx, %rax
	addq	%rax, %rax
	addq	%rdx, %rax
	salq	$2, %rax
	addq	%rdx, %rax
	addq	%rax, %rax
	addq	$23, %rax
	movq	%rax, %rdi
	call	malloc
	movq	%rax, -5320(%rbp)
	cmpq	$0, -5320(%rbp)
	je	.L156
.L25:
	movq	-5336(%rbp), %rax
	leaq	(%rax,%rax), %rsi
	movq	-5320(%rbp), %rax
	movq	-5376(%rbp), %rdx
	movq	%rdx, %rcx
	movq	%rsi, %rdx
	movq	%rcx, %rsi
	movq	%rax, %rdi
	call	memcpy
	movq	-5320(%rbp), %rax
	movq	%rax, -5376(%rbp)
	movq	-5344(%rbp), %rax
	addq	%rax, %rax
	addq	$23, %rax
	movq	%rax, -5312(%rbp)
	movq	-5312(%rbp), %rax
	movq	%rax, -5416(%rbp)
	movabsq	$-6148914691236517205, %rdx
	movq	-5416(%rbp), %rax
	mulq	%rdx
	shrq	$4, %rdx
	movq	%rdx, %rax
	addq	%rax, %rax
	addq	%rdx, %rax
	salq	$3, %rax
	addq	%rax, -5320(%rbp)
	movq	-5336(%rbp), %rdx
	movq	%rdx, %rax
	addq	%rax, %rax
	addq	%rdx, %rax
	salq	$3, %rax
	movq	%rax, %rdx
	movq	-5320(%rbp), %rax
	movq	-5360(%rbp), %rcx
	movq	%rcx, %rsi
	movq	%rax, %rdi
	call	memcpy
	movq	-5320(%rbp), %rax
	movq	%rax, -5360(%rbp)
	movq	-5344(%rbp), %rdx
	movq	%rdx, %rax
	addq	%rax, %rax
	addq	%rdx, %rax
	salq	$3, %rax
	addq	$23, %rax
	movq	%rax, -5304(%rbp)
	movq	-5304(%rbp), %rcx
	movq	%rcx, -5416(%rbp)
	movabsq	$-6148914691236517205, %rdx
	movq	-5416(%rbp), %rax
	mulq	%rdx
	shrq	$4, %rdx
	movq	%rdx, %rax
	addq	%rax, %rax
	addq	%rdx, %rax
	salq	$3, %rax
	addq	%rax, -5320(%rbp)
	leaq	-5200(%rbp), %rax
	cmpq	%rax, -5328(%rbp)
	je	.L26
	movq	-5328(%rbp), %rax
	movq	%rax, %rdi
	call	free
.L26:
	movq	-5336(%rbp), %rax
	subq	$1, %rax
	leaq	(%rax,%rax), %rdx
	movq	-5376(%rbp), %rax
	addq	%rdx, %rax
	movq	%rax, -5368(%rbp)
	movq	-5336(%rbp), %rax
	leaq	-1(%rax), %rdx
	movq	%rdx, %rax
	addq	%rax, %rax
	addq	%rdx, %rax
	salq	$3, %rax
	movq	%rax, %rdx
	movq	-5360(%rbp), %rax
	addq	%rdx, %rax
	movq	%rax, -5352(%rbp)
	movl	yydebug(%rip), %eax
	testl	%eax, %eax
	je	.L27
	movq	stderr(%rip), %rax
	movq	-5344(%rbp), %rdx
	movl	$.LC82, %esi
	movq	%rax, %rdi
	movl	$0, %eax
	call	fprintf
.L27:
	movq	-5344(%rbp), %rax
	subq	$1, %rax
	leaq	(%rax,%rax), %rdx
	movq	-5376(%rbp), %rax
	addq	%rdx, %rax
	cmpq	-5368(%rbp), %rax
	jbe	.L157
.L21:
	movl	yydebug(%rip), %eax
	testl	%eax, %eax
	je	.L29
	movq	stderr(%rip), %rax
	movl	-5400(%rbp), %edx
	movl	$.LC83, %esi
	movq	%rax, %rdi
	movl	$0, %eax
	call	fprintf
.L29:
	cmpl	$12, -5400(%rbp)
	je	.L158
	nop
.L32:
	movl	-5400(%rbp), %eax
	cltq
	movzbl	yypact(%rax), %eax
	movsbl	%al, %eax
	movl	%eax, -5392(%rbp)
	cmpl	$-75, -5392(%rbp)
	je	.L159
.L33:
	movl	yychar(%rip), %eax
	cmpl	$-2, %eax
	jne	.L35
	movl	yydebug(%rip), %eax
	testl	%eax, %eax
	je	.L36
	movq	stderr(%rip), %rax
	movq	%rax, %rcx
	movl	$17, %edx
	movl	$1, %esi
	movl	$.LC84, %edi
	call	fwrite
.L36:
	movl	$0, %eax
	call	yylex
	movl	%eax, yychar(%rip)
.L35:
	movl	yychar(%rip), %eax
	testl	%eax, %eax
	jg	.L37
	movl	$0, -5384(%rbp)
	movl	-5384(%rbp), %eax
	movl	%eax, yychar(%rip)
	movl	yydebug(%rip), %eax
	testl	%eax, %eax
	je	.L38
	movq	stderr(%rip), %rax
	movq	%rax, %rcx
	movl	$21, %edx
	movl	$1, %esi
	movl	$.LC85, %edi
	call	fwrite
	jmp	.L38
.L37:
	movl	yychar(%rip), %eax
	cmpl	$282, %eax
	ja	.L39
	movl	yychar(%rip), %eax
	cltq
	movzbl	yytranslate(%rax), %eax
	movzbl	%al, %eax
	jmp	.L40
.L39:
	movl	$2, %eax
.L40:
	movl	%eax, -5384(%rbp)
	movl	yydebug(%rip), %eax
	testl	%eax, %eax
	je	.L38
	movq	stderr(%rip), %rax
	movl	$.LC86, %edx
	movl	$.LC80, %esi
	movq	%rax, %rdi
	movl	$0, %eax
	call	fprintf
	movq	stderr(%rip), %rax
	movl	-5384(%rbp), %ecx
	movl	$yylval, %edx
	movl	%ecx, %esi
	movq	%rax, %rdi
	call	yy_symbol_print
	movq	stderr(%rip), %rax
	movq	%rax, %rsi
	movl	$10, %edi
	call	fputc
.L38:
	movl	-5384(%rbp), %eax
	addl	%eax, -5392(%rbp)
	cmpl	$0, -5392(%rbp)
	js	.L34
	cmpl	$144, -5392(%rbp)
	jg	.L34
	movl	-5392(%rbp), %eax
	cltq
	movzwl	yycheck(%rax,%rax), %eax
	cwtl
	cmpl	-5384(%rbp), %eax
	jne	.L34
	movl	-5392(%rbp), %eax
	cltq
	movzbl	yytable(%rax), %eax
	movzbl	%al, %eax
	movl	%eax, -5392(%rbp)
	cmpl	$0, -5392(%rbp)
	jg	.L41
	negl	-5392(%rbp)
	jmp	.L42
.L41:
	cmpl	$0, -5396(%rbp)
	je	.L43
	subl	$1, -5396(%rbp)
.L43:
	movl	yydebug(%rip), %eax
	testl	%eax, %eax
	je	.L44
	movq	stderr(%rip), %rax
	movl	$.LC87, %edx
	movl	$.LC80, %esi
	movq	%rax, %rdi
	movl	$0, %eax
	call	fprintf
	movq	stderr(%rip), %rax
	movl	-5384(%rbp), %ecx
	movl	$yylval, %edx
	movl	%ecx, %esi
	movq	%rax, %rdi
	call	yy_symbol_print
	movq	stderr(%rip), %rax
	movq	%rax, %rsi
	movl	$10, %edi
	call	fputc
.L44:
	movl	$-2, yychar(%rip)
	movl	-5392(%rbp), %eax
	movl	%eax, -5400(%rbp)
	addq	$24, -5352(%rbp)
	movq	-5352(%rbp), %rax
	movq	yylval(%rip), %rdx
	movq	%rdx, (%rax)
	movq	yylval+8(%rip), %rdx
	movq	%rdx, 8(%rax)
	movq	yylval+16(%rip), %rdx
	movq	%rdx, 16(%rax)
	jmp	.L20
.L159:
	nop
.L34:
	movl	-5400(%rbp), %eax
	cltq
	movzbl	yydefact(%rax), %eax
	movzbl	%al, %eax
	movl	%eax, -5392(%rbp)
	cmpl	$0, -5392(%rbp)
	je	.L160
	nop
.L42:
	movl	-5392(%rbp), %eax
	cltq
	movzbl	yyr2(%rax), %eax
	movzbl	%al, %eax
	movl	%eax, -5380(%rbp)
	movl	$1, %eax
	subl	-5380(%rbp), %eax
	movslq	%eax, %rdx
	movq	%rdx, %rax
	addq	%rax, %rax
	addq	%rdx, %rax
	salq	$3, %rax
	movq	%rax, %rdx
	movq	-5352(%rbp), %rax
	addq	%rdx, %rax
	movq	(%rax), %rdx
	movq	%rdx, -5232(%rbp)
	movq	8(%rax), %rdx
	movq	%rdx, -5224(%rbp)
	movq	16(%rax), %rax
	movq	%rax, -5216(%rbp)
	movl	yydebug(%rip), %eax
	testl	%eax, %eax
	je	.L47
	movl	-5392(%rbp), %edx
	movq	-5352(%rbp), %rax
	movl	%edx, %esi
	movq	%rax, %rdi
	call	yy_reduce_print
.L47:
	cmpl	$77, -5392(%rbp)
	ja	.L161
	movl	-5392(%rbp), %eax
	movq	.L123(,%rax,8), %rax
	jmp	*%rax
	.section	.rodata
	.align 8
	.align 4
.L123:
	.quad	.L161
	.quad	.L161
	.quad	.L49
	.quad	.L50
	.quad	.L51
	.quad	.L52
	.quad	.L53
	.quad	.L54
	.quad	.L55
	.quad	.L56
	.quad	.L57
	.quad	.L58
	.quad	.L59
	.quad	.L60
	.quad	.L61
	.quad	.L62
	.quad	.L161
	.quad	.L63
	.quad	.L64
	.quad	.L65
	.quad	.L66
	.quad	.L67
	.quad	.L68
	.quad	.L69
	.quad	.L70
	.quad	.L71
	.quad	.L72
	.quad	.L73
	.quad	.L74
	.quad	.L75
	.quad	.L76
	.quad	.L77
	.quad	.L78
	.quad	.L79
	.quad	.L80
	.quad	.L81
	.quad	.L82
	.quad	.L83
	.quad	.L84
	.quad	.L85
	.quad	.L86
	.quad	.L87
	.quad	.L88
	.quad	.L89
	.quad	.L161
	.quad	.L90
	.quad	.L91
	.quad	.L161
	.quad	.L161
	.quad	.L94
	.quad	.L95
	.quad	.L96
	.quad	.L97
	.quad	.L98
	.quad	.L99
	.quad	.L100
	.quad	.L101
	.quad	.L102
	.quad	.L103
	.quad	.L104
	.quad	.L105
	.quad	.L106
	.quad	.L107
	.quad	.L108
	.quad	.L109
	.quad	.L110
	.quad	.L111
	.quad	.L112
	.quad	.L113
	.quad	.L114
	.quad	.L115
	.quad	.L116
	.quad	.L117
	.quad	.L118
	.quad	.L119
	.quad	.L120
	.quad	.L121
	.quad	.L122
	.text
.L49:
	movl	$1, %esi
	movl	$310, %edi
	call	AST_new
	movq	%rax, -5216(%rbp)
	movq	-5352(%rbp), %rax
	subq	$24, %rax
	movq	16(%rax), %rdx
	movq	-5216(%rbp), %rax
	movq	%rdx, %rsi
	movq	%rax, %rdi
	call	AST_addChild
	movq	-5352(%rbp), %rax
	movq	16(%rax), %rdx
	movq	-5216(%rbp), %rax
	movq	%rdx, %rsi
	movq	%rax, %rdi
	call	AST_addChildren
	movq	-5216(%rbp), %rax
	movq	%rax, %rdi
	call	AST_prettyPrinter
	jmp	.L124
.L50:
	movl	$1, %esi
	movl	$310, %edi
	call	AST_new
	movq	%rax, -5216(%rbp)
	movq	-5352(%rbp), %rax
	subq	$24, %rax
	movq	16(%rax), %rdx
	movq	-5216(%rbp), %rax
	movq	%rdx, %rsi
	movq	%rax, %rdi
	call	AST_addChildren
	jmp	.L124
.L51:
	movq	-5352(%rbp), %rax
	movq	16(%rax), %rax
	movq	%rax, -5216(%rbp)
	jmp	.L124
.L52:
	movq	-5352(%rbp), %rax
	movq	16(%rax), %rax
	movq	%rax, -5216(%rbp)
	jmp	.L124
.L53:
	movq	-5352(%rbp), %rax
	subq	$72, %rax
	movl	12(%rax), %eax
	movl	%eax, %esi
	movl	$311, %edi
	call	AST_new
	movq	%rax, -5216(%rbp)
	movq	-5352(%rbp), %rax
	subq	$72, %rax
	movq	(%rax), %rax
	movq	%rax, %rdi
	call	AST_newStringFromToken
	movq	%rax, %rdx
	movq	-5216(%rbp), %rax
	movq	%rdx, %rsi
	movq	%rax, %rdi
	call	AST_addChild
	movq	-5352(%rbp), %rax
	subq	$24, %rax
	movq	16(%rax), %rdx
	movq	-5216(%rbp), %rax
	movq	%rdx, %rsi
	movq	%rax, %rdi
	call	AST_addChild
	jmp	.L124
.L54:
	movq	$0, -5216(%rbp)
	jmp	.L124
.L55:
	movq	-5352(%rbp), %rax
	subq	$24, %rax
	movq	16(%rax), %rdx
	movq	-5352(%rbp), %rax
	movq	16(%rax), %rax
	movq	%rdx, %rsi
	movq	%rax, %rdi
	call	AST_prependSibling
	movq	%rax, -5216(%rbp)
	jmp	.L124
.L56:
	movq	-5352(%rbp), %rax
	subq	$240, %rax
	movl	12(%rax), %eax
	movl	%eax, %esi
	movl	$296, %edi
	call	AST_new
	movq	%rax, -5216(%rbp)
	movq	-5352(%rbp), %rax
	subq	$216, %rax
	movq	(%rax), %rax
	movq	%rax, %rdi
	call	AST_newStringFromToken
	movq	%rax, %rdx
	movq	-5216(%rbp), %rax
	movq	%rdx, %rsi
	movq	%rax, %rdi
	call	AST_addChild
	movq	-5352(%rbp), %rax
	subq	$168, %rax
	movq	16(%rax), %rdx
	movq	-5216(%rbp), %rax
	movq	%rdx, %rsi
	movq	%rax, %rdi
	call	AST_addChild
	movq	-5352(%rbp), %rax
	subq	$96, %rax
	movq	16(%rax), %rdx
	movq	-5216(%rbp), %rax
	movq	%rdx, %rsi
	movq	%rax, %rdi
	call	AST_addChild
	movq	-5352(%rbp), %rax
	subq	$48, %rax
	movl	12(%rax), %eax
	movl	%eax, %esi
	movl	$312, %edi
	call	AST_new
	movq	%rax, -5296(%rbp)
	movq	-5352(%rbp), %rax
	subq	$48, %rax
	movq	16(%rax), %rdx
	movq	-5296(%rbp), %rax
	movq	%rdx, %rsi
	movq	%rax, %rdi
	call	AST_addChildren
	movq	-5216(%rbp), %rax
	movq	-5296(%rbp), %rdx
	movq	%rdx, %rsi
	movq	%rax, %rdi
	call	AST_addChild
	jmp	.L124
.L57:
	movq	-5352(%rbp), %rax
	subq	$192, %rax
	movl	12(%rax), %eax
	movl	%eax, %esi
	movl	$296, %edi
	call	AST_new
	movq	%rax, -5216(%rbp)
	movq	-5352(%rbp), %rax
	subq	$168, %rax
	movq	(%rax), %rax
	movq	%rax, %rdi
	call	AST_newStringFromToken
	movq	%rax, %rdx
	movq	-5216(%rbp), %rax
	movq	%rdx, %rsi
	movq	%rax, %rdi
	call	AST_addChild
	movq	-5352(%rbp), %rax
	subq	$120, %rax
	movq	16(%rax), %rdx
	movq	-5216(%rbp), %rax
	movq	%rdx, %rsi
	movq	%rax, %rdi
	call	AST_addChild
	movq	-5352(%rbp), %rax
	subq	$48, %rax
	movl	12(%rax), %eax
	movl	%eax, %esi
	movl	$312, %edi
	call	AST_new
	movq	%rax, -5288(%rbp)
	movq	-5352(%rbp), %rax
	subq	$48, %rax
	movq	16(%rax), %rdx
	movq	-5288(%rbp), %rax
	movq	%rdx, %rsi
	movq	%rax, %rdi
	call	AST_addChildren
	movq	-5216(%rbp), %rax
	movq	-5288(%rbp), %rdx
	movq	%rdx, %rsi
	movq	%rax, %rdi
	call	AST_addChild
	jmp	.L124
.L58:
	movq	$0, -5216(%rbp)
	jmp	.L124
.L59:
	movq	-5352(%rbp), %rax
	subq	$24, %rax
	movq	16(%rax), %rdx
	movq	-5352(%rbp), %rax
	movq	16(%rax), %rax
	movq	%rdx, %rsi
	movq	%rax, %rdi
	call	AST_prependSibling
	movq	%rax, -5216(%rbp)
	jmp	.L124
.L60:
	movq	$0, -5216(%rbp)
	jmp	.L124
.L61:
	movq	-5352(%rbp), %rax
	subq	$48, %rax
	movq	16(%rax), %rdx
	movq	-5352(%rbp), %rax
	movq	16(%rax), %rax
	movq	%rdx, %rsi
	movq	%rax, %rdi
	call	AST_prependSibling
	movq	%rax, -5216(%rbp)
	jmp	.L124
.L62:
	movq	-5352(%rbp), %rax
	subq	$48, %rax
	movl	12(%rax), %eax
	movl	%eax, %esi
	movl	$315, %edi
	call	AST_new
	movq	%rax, -5216(%rbp)
	movq	-5352(%rbp), %rax
	subq	$48, %rax
	movq	(%rax), %rax
	movq	%rax, %rdi
	call	AST_newStringFromToken
	movq	%rax, %rdx
	movq	-5216(%rbp), %rax
	movq	%rdx, %rsi
	movq	%rax, %rdi
	call	AST_addChild
	movq	-5352(%rbp), %rax
	movq	16(%rax), %rdx
	movq	-5216(%rbp), %rax
	movq	%rdx, %rsi
	movq	%rax, %rdi
	call	AST_addChild
	jmp	.L124
.L63:
	movq	-5352(%rbp), %rax
	subq	$48, %rax
	movq	16(%rax), %rdx
	movq	-5352(%rbp), %rax
	movq	16(%rax), %rax
	movq	%rdx, %rsi
	movq	%rax, %rdi
	call	AST_prependSibling
	movq	%rax, -5216(%rbp)
	jmp	.L124
.L64:
	movq	$0, -5216(%rbp)
	jmp	.L124
.L65:
	movq	-5352(%rbp), %rax
	movq	16(%rax), %rax
	movq	%rax, -5216(%rbp)
	jmp	.L124
.L66:
	movq	-5352(%rbp), %rax
	movq	16(%rax), %rax
	movq	%rax, -5216(%rbp)
	jmp	.L124
.L67:
	movq	-5352(%rbp), %rax
	movl	12(%rax), %eax
	movl	%eax, %esi
	movl	$284, %edi
	call	AST_new
	movq	%rax, -5216(%rbp)
	jmp	.L124
.L68:
	movq	-5352(%rbp), %rax
	movl	12(%rax), %eax
	movl	%eax, %esi
	movl	$283, %edi
	call	AST_new
	movq	%rax, -5216(%rbp)
	jmp	.L124
.L69:
	movq	-5352(%rbp), %rax
	movl	12(%rax), %eax
	movl	%eax, %esi
	movl	$286, %edi
	call	AST_new
	movq	%rax, -5216(%rbp)
	jmp	.L124
.L70:
	movq	-5352(%rbp), %rax
	movl	12(%rax), %eax
	movl	%eax, %esi
	movl	$285, %edi
	call	AST_new
	movq	%rax, -5216(%rbp)
	jmp	.L124
.L71:
	movq	$0, -5216(%rbp)
	jmp	.L124
.L72:
	movq	-5352(%rbp), %rax
	subq	$48, %rax
	movq	16(%rax), %rdx
	movq	-5352(%rbp), %rax
	movq	16(%rax), %rax
	movq	%rdx, %rsi
	movq	%rax, %rdi
	call	AST_prependSibling
	movq	%rax, -5216(%rbp)
	jmp	.L124
.L73:
	movq	-5352(%rbp), %rax
	movq	16(%rax), %rax
	movq	%rax, -5216(%rbp)
	jmp	.L124
.L74:
	movq	-5352(%rbp), %rax
	movq	16(%rax), %rax
	movq	%rax, -5216(%rbp)
	jmp	.L124
.L75:
	movq	-5352(%rbp), %rax
	movq	16(%rax), %rax
	movq	%rax, -5216(%rbp)
	jmp	.L124
.L76:
	movq	-5352(%rbp), %rax
	movq	16(%rax), %rax
	movq	%rax, -5216(%rbp)
	jmp	.L124
.L77:
	movq	-5352(%rbp), %rax
	movq	16(%rax), %rax
	movq	%rax, -5216(%rbp)
	jmp	.L124
.L78:
	movq	-5352(%rbp), %rax
	subq	$120, %rax
	movl	12(%rax), %eax
	movl	%eax, %esi
	movl	$291, %edi
	call	AST_new
	movq	%rax, -5216(%rbp)
	movq	-5352(%rbp), %rax
	subq	$96, %rax
	movq	16(%rax), %rdx
	movq	-5216(%rbp), %rax
	movq	%rdx, %rsi
	movq	%rax, %rdi
	call	AST_addChild
	movq	-5352(%rbp), %rax
	subq	$48, %rax
	movl	12(%rax), %eax
	movl	%eax, %esi
	movl	$312, %edi
	call	AST_new
	movq	%rax, -5280(%rbp)
	movq	-5352(%rbp), %rax
	subq	$48, %rax
	movq	16(%rax), %rdx
	movq	-5280(%rbp), %rax
	movq	%rdx, %rsi
	movq	%rax, %rdi
	call	AST_addChildren
	movq	-5216(%rbp), %rax
	movq	-5280(%rbp), %rdx
	movq	%rdx, %rsi
	movq	%rax, %rdi
	call	AST_addChild
	movq	-5352(%rbp), %rax
	subq	$24, %rax
	movl	12(%rax), %eax
	movl	%eax, %esi
	movl	$313, %edi
	call	AST_new
	movq	%rax, -5272(%rbp)
	movq	-5352(%rbp), %rax
	subq	$24, %rax
	movq	16(%rax), %rdx
	movq	-5280(%rbp), %rax
	movq	%rdx, %rsi
	movq	%rax, %rdi
	call	AST_addChildren
	movq	-5216(%rbp), %rax
	movq	-5272(%rbp), %rdx
	movq	%rdx, %rsi
	movq	%rax, %rdi
	call	AST_addChild
	jmp	.L124
.L79:
	movq	-5352(%rbp), %rax
	subq	$120, %rax
	movl	12(%rax), %eax
	movl	%eax, %esi
	movl	$314, %edi
	call	AST_new
	movq	%rax, -5216(%rbp)
	movq	-5352(%rbp), %rax
	subq	$72, %rax
	movq	16(%rax), %rdx
	movq	-5216(%rbp), %rax
	movq	%rdx, %rsi
	movq	%rax, %rdi
	call	AST_addChild
	movq	-5352(%rbp), %rax
	subq	$24, %rax
	movl	12(%rax), %eax
	movl	%eax, %esi
	movl	$312, %edi
	call	AST_new
	movq	%rax, -5264(%rbp)
	movq	-5352(%rbp), %rax
	subq	$24, %rax
	movq	16(%rax), %rdx
	movq	-5264(%rbp), %rax
	movq	%rdx, %rsi
	movq	%rax, %rdi
	call	AST_addChildren
	movq	-5216(%rbp), %rax
	movq	-5264(%rbp), %rdx
	movq	%rdx, %rsi
	movq	%rax, %rdi
	call	AST_addChild
	movq	-5352(%rbp), %rax
	movl	12(%rax), %eax
	movl	%eax, %esi
	movl	$313, %edi
	call	AST_new
	movq	%rax, -5256(%rbp)
	movq	-5352(%rbp), %rax
	movq	16(%rax), %rdx
	movq	-5264(%rbp), %rax
	movq	%rdx, %rsi
	movq	%rax, %rdi
	call	AST_addChildren
	movq	-5216(%rbp), %rax
	movq	-5256(%rbp), %rdx
	movq	%rdx, %rsi
	movq	%rax, %rdi
	call	AST_addChild
	jmp	.L124
.L80:
	movq	-5352(%rbp), %rax
	subq	$48, %rax
	movl	12(%rax), %eax
	movl	%eax, %esi
	movl	$292, %edi
	call	AST_new
	movq	%rax, -5216(%rbp)
	movq	-5352(%rbp), %rax
	movl	12(%rax), %eax
	movl	%eax, %esi
	movl	$312, %edi
	call	AST_new
	movq	%rax, -5248(%rbp)
	movq	-5352(%rbp), %rax
	movq	16(%rax), %rdx
	movq	-5248(%rbp), %rax
	movq	%rdx, %rsi
	movq	%rax, %rdi
	call	AST_addChildren
	movq	-5216(%rbp), %rax
	movq	-5248(%rbp), %rdx
	movq	%rdx, %rsi
	movq	%rax, %rdi
	call	AST_addChild
	jmp	.L124
.L81:
	movq	$0, -5216(%rbp)
	jmp	.L124
.L82:
	movq	-5352(%rbp), %rax
	subq	$96, %rax
	movl	12(%rax), %eax
	movl	%eax, %esi
	movl	$290, %edi
	call	AST_new
	movq	%rax, -5216(%rbp)
	movq	-5352(%rbp), %rax
	subq	$72, %rax
	movq	16(%rax), %rdx
	movq	-5216(%rbp), %rax
	movq	%rdx, %rsi
	movq	%rax, %rdi
	call	AST_addChild
	movq	-5352(%rbp), %rax
	subq	$24, %rax
	movl	12(%rax), %eax
	movl	%eax, %esi
	movl	$312, %edi
	call	AST_new
	movq	%rax, -5240(%rbp)
	movq	-5352(%rbp), %rax
	subq	$24, %rax
	movq	16(%rax), %rdx
	movq	-5240(%rbp), %rax
	movq	%rdx, %rsi
	movq	%rax, %rdi
	call	AST_addChildren
	movq	-5216(%rbp), %rax
	movq	-5240(%rbp), %rdx
	movq	%rdx, %rsi
	movq	%rax, %rdi
	call	AST_addChild
	jmp	.L124
.L83:
	movq	-5352(%rbp), %rax
	subq	$48, %rax
	movl	12(%rax), %eax
	movl	%eax, %esi
	movl	$316, %edi
	call	AST_new
	movq	%rax, -5216(%rbp)
	movq	-5352(%rbp), %rax
	subq	$48, %rax
	movq	16(%rax), %rdx
	movq	-5216(%rbp), %rax
	movq	%rdx, %rsi
	movq	%rax, %rdi
	call	AST_addChild
	movq	-5352(%rbp), %rax
	movq	16(%rax), %rdx
	movq	-5216(%rbp), %rax
	movq	%rdx, %rsi
	movq	%rax, %rdi
	call	AST_addChild
	jmp	.L124
.L84:
	movq	-5352(%rbp), %rax
	movq	(%rax), %rax
	movq	%rax, %rdi
	call	AST_newStringFromToken
	movq	%rax, -5216(%rbp)
	jmp	.L124
.L85:
	movq	-5352(%rbp), %rax
	subq	$72, %rax
	movq	16(%rax), %rdx
	movq	-5352(%rbp), %rax
	subq	$24, %rax
	movq	16(%rax), %rax
	movq	%rdx, %rsi
	movq	%rax, %rdi
	call	AST_prependSibling
	movq	%rax, -5216(%rbp)
	jmp	.L124
.L86:
	movq	-5352(%rbp), %rax
	subq	$72, %rax
	movl	12(%rax), %eax
	movl	%eax, %esi
	movl	$318, %edi
	call	AST_new
	movq	%rax, -5216(%rbp)
	movq	-5352(%rbp), %rax
	subq	$72, %rax
	movq	(%rax), %rax
	movq	%rax, %rdi
	call	AST_newStringFromToken
	movq	%rax, %rdx
	movq	-5216(%rbp), %rax
	movq	%rdx, %rsi
	movq	%rax, %rdi
	call	AST_addChild
	movq	-5352(%rbp), %rax
	subq	$24, %rax
	movq	16(%rax), %rdx
	movq	-5216(%rbp), %rax
	movq	%rdx, %rsi
	movq	%rax, %rdi
	call	AST_addChild
	jmp	.L124
.L87:
	movq	$0, -5216(%rbp)
	jmp	.L124
.L88:
	movq	-5352(%rbp), %rax
	subq	$24, %rax
	movq	16(%rax), %rdx
	movq	-5352(%rbp), %rax
	movq	16(%rax), %rax
	movq	%rdx, %rsi
	movq	%rax, %rdi
	call	AST_prependSibling
	movq	%rax, -5216(%rbp)
	jmp	.L124
.L89:
	movq	$0, -5216(%rbp)
	jmp	.L124
.L90:
	movq	-5352(%rbp), %rax
	subq	$24, %rax
	movl	12(%rax), %eax
	movl	%eax, %esi
	movl	$295, %edi
	call	AST_new
	movq	%rax, -5216(%rbp)
	movq	-5352(%rbp), %rax
	movq	16(%rax), %rdx
	movq	-5216(%rbp), %rax
	movq	%rdx, %rsi
	movq	%rax, %rdi
	call	AST_addChild
	jmp	.L124
.L91:
	movq	-5352(%rbp), %rax
	movl	12(%rax), %eax
	movl	%eax, %esi
	movl	$295, %edi
	call	AST_new
	movq	%rax, -5216(%rbp)
	jmp	.L124
.L94:
	movq	-5352(%rbp), %rax
	movq	16(%rax), %rax
	movq	%rax, -5216(%rbp)
	jmp	.L124
.L95:
	movq	-5352(%rbp), %rax
	movq	16(%rax), %rax
	movq	%rax, -5216(%rbp)
	jmp	.L124
.L96:
	movq	-5352(%rbp), %rax
	subq	$48, %rax
	movl	12(%rax), %eax
	movl	%eax, %esi
	movl	$308, %edi
	call	AST_new
	movq	%rax, -5216(%rbp)
	movq	-5352(%rbp), %rax
	subq	$48, %rax
	movq	16(%rax), %rdx
	movq	-5216(%rbp), %rax
	movq	%rdx, %rsi
	movq	%rax, %rdi
	call	AST_addChild
	movq	-5352(%rbp), %rax
	movq	16(%rax), %rdx
	movq	-5216(%rbp), %rax
	movq	%rdx, %rsi
	movq	%rax, %rdi
	call	AST_addChild
	jmp	.L124
.L97:
	movq	-5352(%rbp), %rax
	movq	16(%rax), %rax
	movq	%rax, -5216(%rbp)
	jmp	.L124
.L98:
	movq	-5352(%rbp), %rax
	subq	$48, %rax
	movl	12(%rax), %eax
	movl	%eax, %esi
	movl	$307, %edi
	call	AST_new
	movq	%rax, -5216(%rbp)
	movq	-5352(%rbp), %rax
	subq	$48, %rax
	movq	16(%rax), %rdx
	movq	-5216(%rbp), %rax
	movq	%rdx, %rsi
	movq	%rax, %rdi
	call	AST_addChild
	movq	-5352(%rbp), %rax
	movq	16(%rax), %rdx
	movq	-5216(%rbp), %rax
	movq	%rdx, %rsi
	movq	%rax, %rdi
	call	AST_addChild
	jmp	.L124
.L99:
	movq	-5352(%rbp), %rax
	movq	16(%rax), %rax
	movq	%rax, -5216(%rbp)
	jmp	.L124
.L100:
	movq	-5352(%rbp), %rax
	subq	$48, %rax
	movl	12(%rax), %eax
	movl	%eax, %esi
	movl	$298, %edi
	call	AST_new
	movq	%rax, -5216(%rbp)
	movq	-5352(%rbp), %rax
	subq	$48, %rax
	movq	16(%rax), %rdx
	movq	-5216(%rbp), %rax
	movq	%rdx, %rsi
	movq	%rax, %rdi
	call	AST_addChild
	movq	-5352(%rbp), %rax
	movq	16(%rax), %rdx
	movq	-5216(%rbp), %rax
	movq	%rdx, %rsi
	movq	%rax, %rdi
	call	AST_addChild
	jmp	.L124
.L101:
	movq	-5352(%rbp), %rax
	subq	$48, %rax
	movl	12(%rax), %eax
	movl	%eax, %esi
	movl	$297, %edi
	call	AST_new
	movq	%rax, -5216(%rbp)
	movq	-5352(%rbp), %rax
	subq	$48, %rax
	movq	16(%rax), %rdx
	movq	-5216(%rbp), %rax
	movq	%rdx, %rsi
	movq	%rax, %rdi
	call	AST_addChild
	movq	-5352(%rbp), %rax
	movq	16(%rax), %rdx
	movq	-5216(%rbp), %rax
	movq	%rdx, %rsi
	movq	%rax, %rdi
	call	AST_addChild
	jmp	.L124
.L102:
	movq	-5352(%rbp), %rax
	subq	$48, %rax
	movl	12(%rax), %eax
	movl	%eax, %esi
	movl	$301, %edi
	call	AST_new
	movq	%rax, -5216(%rbp)
	movq	-5352(%rbp), %rax
	subq	$48, %rax
	movq	16(%rax), %rdx
	movq	-5216(%rbp), %rax
	movq	%rdx, %rsi
	movq	%rax, %rdi
	call	AST_addChild
	movq	-5352(%rbp), %rax
	movq	16(%rax), %rdx
	movq	-5216(%rbp), %rax
	movq	%rdx, %rsi
	movq	%rax, %rdi
	call	AST_addChild
	jmp	.L124
.L103:
	movq	-5352(%rbp), %rax
	subq	$48, %rax
	movl	12(%rax), %eax
	movl	%eax, %esi
	movl	$300, %edi
	call	AST_new
	movq	%rax, -5216(%rbp)
	movq	-5352(%rbp), %rax
	subq	$48, %rax
	movq	16(%rax), %rdx
	movq	-5216(%rbp), %rax
	movq	%rdx, %rsi
	movq	%rax, %rdi
	call	AST_addChild
	movq	-5352(%rbp), %rax
	movq	16(%rax), %rdx
	movq	-5216(%rbp), %rax
	movq	%rdx, %rsi
	movq	%rax, %rdi
	call	AST_addChild
	jmp	.L124
.L104:
	movq	-5352(%rbp), %rax
	subq	$48, %rax
	movl	12(%rax), %eax
	movl	%eax, %esi
	movl	$299, %edi
	call	AST_new
	movq	%rax, -5216(%rbp)
	movq	-5352(%rbp), %rax
	subq	$48, %rax
	movq	16(%rax), %rdx
	movq	-5216(%rbp), %rax
	movq	%rdx, %rsi
	movq	%rax, %rdi
	call	AST_addChild
	movq	-5352(%rbp), %rax
	movq	16(%rax), %rdx
	movq	-5216(%rbp), %rax
	movq	%rdx, %rsi
	movq	%rax, %rdi
	call	AST_addChild
	jmp	.L124
.L105:
	movq	-5352(%rbp), %rax
	subq	$48, %rax
	movl	12(%rax), %eax
	movl	%eax, %esi
	movl	$302, %edi
	call	AST_new
	movq	%rax, -5216(%rbp)
	movq	-5352(%rbp), %rax
	subq	$48, %rax
	movq	16(%rax), %rdx
	movq	-5216(%rbp), %rax
	movq	%rdx, %rsi
	movq	%rax, %rdi
	call	AST_addChild
	movq	-5352(%rbp), %rax
	movq	16(%rax), %rdx
	movq	-5216(%rbp), %rax
	movq	%rdx, %rsi
	movq	%rax, %rdi
	call	AST_addChild
	jmp	.L124
.L106:
	movq	-5352(%rbp), %rax
	movq	16(%rax), %rax
	movq	%rax, -5216(%rbp)
	jmp	.L124
.L107:
	movq	-5352(%rbp), %rax
	subq	$48, %rax
	movl	12(%rax), %eax
	movl	%eax, %esi
	movl	$303, %edi
	call	AST_new
	movq	%rax, -5216(%rbp)
	movq	-5352(%rbp), %rax
	subq	$48, %rax
	movq	16(%rax), %rdx
	movq	-5216(%rbp), %rax
	movq	%rdx, %rsi
	movq	%rax, %rdi
	call	AST_addChild
	movq	-5352(%rbp), %rax
	movq	16(%rax), %rdx
	movq	-5216(%rbp), %rax
	movq	%rdx, %rsi
	movq	%rax, %rdi
	call	AST_addChild
	jmp	.L124
.L108:
	movq	-5352(%rbp), %rax
	subq	$48, %rax
	movl	12(%rax), %eax
	movl	%eax, %esi
	movl	$304, %edi
	call	AST_new
	movq	%rax, -5216(%rbp)
	movq	-5352(%rbp), %rax
	subq	$48, %rax
	movq	16(%rax), %rdx
	movq	-5216(%rbp), %rax
	movq	%rdx, %rsi
	movq	%rax, %rdi
	call	AST_addChild
	movq	-5352(%rbp), %rax
	movq	16(%rax), %rdx
	movq	-5216(%rbp), %rax
	movq	%rdx, %rsi
	movq	%rax, %rdi
	call	AST_addChild
	jmp	.L124
.L109:
	movq	-5352(%rbp), %rax
	movq	16(%rax), %rax
	movq	%rax, -5216(%rbp)
	jmp	.L124
.L110:
	movq	-5352(%rbp), %rax
	subq	$48, %rax
	movl	12(%rax), %eax
	movl	%eax, %esi
	movl	$305, %edi
	call	AST_new
	movq	%rax, -5216(%rbp)
	movq	-5352(%rbp), %rax
	subq	$48, %rax
	movq	16(%rax), %rdx
	movq	-5216(%rbp), %rax
	movq	%rdx, %rsi
	movq	%rax, %rdi
	call	AST_addChild
	movq	-5352(%rbp), %rax
	movq	16(%rax), %rdx
	movq	-5216(%rbp), %rax
	movq	%rdx, %rsi
	movq	%rax, %rdi
	call	AST_addChild
	jmp	.L124
.L111:
	movq	-5352(%rbp), %rax
	subq	$48, %rax
	movl	12(%rax), %eax
	movl	%eax, %esi
	movl	$306, %edi
	call	AST_new
	movq	%rax, -5216(%rbp)
	movq	-5352(%rbp), %rax
	subq	$48, %rax
	movq	16(%rax), %rdx
	movq	-5216(%rbp), %rax
	movq	%rdx, %rsi
	movq	%rax, %rdi
	call	AST_addChild
	movq	-5352(%rbp), %rax
	movq	16(%rax), %rdx
	movq	-5216(%rbp), %rax
	movq	%rdx, %rsi
	movq	%rax, %rdi
	call	AST_addChild
	jmp	.L124
.L112:
	movq	-5352(%rbp), %rax
	subq	$24, %rax
	movl	12(%rax), %eax
	movl	%eax, %esi
	movl	$289, %edi
	call	AST_new
	movq	%rax, -5216(%rbp)
	movq	-5352(%rbp), %rax
	movq	16(%rax), %rdx
	movq	-5216(%rbp), %rax
	movq	%rdx, %rsi
	movq	%rax, %rdi
	call	AST_addChild
	jmp	.L124
.L113:
	movq	-5352(%rbp), %rax
	subq	$24, %rax
	movl	12(%rax), %eax
	movl	%eax, %esi
	movl	$317, %edi
	call	AST_new
	movq	%rax, -5216(%rbp)
	movq	-5352(%rbp), %rax
	movq	16(%rax), %rdx
	movq	-5216(%rbp), %rax
	movq	%rdx, %rsi
	movq	%rax, %rdi
	call	AST_addChild
	jmp	.L124
.L114:
	movq	-5352(%rbp), %rax
	movq	16(%rax), %rax
	movq	%rax, -5216(%rbp)
	jmp	.L124
.L115:
	movq	-5352(%rbp), %rax
	movl	8(%rax), %eax
	movl	%eax, %edi
	movl	$0, %eax
	call	newNumFromToken
	cltq
	movq	%rax, -5216(%rbp)
	jmp	.L124
.L116:
	movq	-5352(%rbp), %rax
	movq	(%rax), %rax
	movq	%rax, %rdi
	call	AST_newStringFromToken
	movq	%rax, -5216(%rbp)
	jmp	.L124
.L117:
	movq	-5352(%rbp), %rax
	movl	12(%rax), %eax
	movl	%eax, %esi
	movl	$287, %edi
	call	AST_new
	movq	%rax, -5216(%rbp)
	jmp	.L124
.L118:
	movq	-5352(%rbp), %rax
	movl	12(%rax), %eax
	movl	%eax, %esi
	movl	$288, %edi
	call	AST_new
	movq	%rax, -5216(%rbp)
	jmp	.L124
.L119:
	movq	-5352(%rbp), %rax
	subq	$96, %rax
	movl	12(%rax), %eax
	movl	%eax, %esi
	movl	$294, %edi
	call	AST_new
	movq	%rax, -5216(%rbp)
	movq	-5352(%rbp), %rax
	subq	$48, %rax
	movq	16(%rax), %rdx
	movq	-5216(%rbp), %rax
	movq	%rdx, %rsi
	movq	%rax, %rdi
	call	AST_addChild
	movq	-5352(%rbp), %rax
	movq	16(%rax), %rdx
	movq	-5216(%rbp), %rax
	movq	%rdx, %rsi
	movq	%rax, %rdi
	call	AST_addChild
	jmp	.L124
.L120:
	movq	-5352(%rbp), %rax
	subq	$72, %rax
	movl	12(%rax), %eax
	movl	%eax, %esi
	movl	$318, %edi
	call	AST_new
	movq	%rax, -5216(%rbp)
	movq	-5352(%rbp), %rax
	subq	$72, %rax
	movq	(%rax), %rax
	movq	%rax, %rdi
	call	AST_newStringFromToken
	movq	%rax, %rdx
	movq	-5216(%rbp), %rax
	movq	%rdx, %rsi
	movq	%rax, %rdi
	call	AST_addChild
	movq	-5352(%rbp), %rax
	subq	$24, %rax
	movq	16(%rax), %rdx
	movq	-5216(%rbp), %rax
	movq	%rdx, %rsi
	movq	%rax, %rdi
	call	AST_addChild
	jmp	.L124
.L121:
	movq	-5352(%rbp), %rax
	movq	16(%rax), %rax
	movq	%rax, -5216(%rbp)
	jmp	.L124
.L122:
	movq	-5352(%rbp), %rax
	subq	$24, %rax
	movq	16(%rax), %rax
	movq	%rax, -5216(%rbp)
	jmp	.L124
.L161:
	nop
.L124:
	movl	yydebug(%rip), %eax
	testl	%eax, %eax
	je	.L125
	movq	stderr(%rip), %rax
	movl	$.LC88, %edx
	movl	$.LC80, %esi
	movq	%rax, %rdi
	movl	$0, %eax
	call	fprintf
	movl	-5392(%rbp), %eax
	cltq
	movzbl	yyr1(%rax), %eax
	movzbl	%al, %ecx
	movq	stderr(%rip), %rax
	leaq	-5232(%rbp), %rdx
	movl	%ecx, %esi
	movq	%rax, %rdi
	call	yy_symbol_print
	movq	stderr(%rip), %rax
	movq	%rax, %rsi
	movl	$10, %edi
	call	fputc
.L125:
	movl	-5380(%rbp), %eax
	movslq	%eax, %rdx
	movq	%rdx, %rax
	addq	%rax, %rax
	addq	%rdx, %rax
	salq	$3, %rax
	negq	%rax
	addq	%rax, -5352(%rbp)
	movl	-5380(%rbp), %eax
	cltq
	addq	%rax, %rax
	negq	%rax
	addq	%rax, -5368(%rbp)
	movl	$0, -5380(%rbp)
	movl	yydebug(%rip), %eax
	testl	%eax, %eax
	je	.L126
	movq	-5368(%rbp), %rdx
	movq	-5376(%rbp), %rax
	movq	%rdx, %rsi
	movq	%rax, %rdi
	call	yy_stack_print
.L126:
	addq	$24, -5352(%rbp)
	movq	-5352(%rbp), %rax
	movq	-5232(%rbp), %rdx
	movq	%rdx, (%rax)
	movq	-5224(%rbp), %rdx
	movq	%rdx, 8(%rax)
	movq	-5216(%rbp), %rdx
	movq	%rdx, 16(%rax)
	movl	-5392(%rbp), %eax
	cltq
	movzbl	yyr1(%rax), %eax
	movzbl	%al, %eax
	movl	%eax, -5392(%rbp)
	movl	-5392(%rbp), %eax
	subl	$41, %eax
	cltq
	movzbl	yypgoto(%rax), %eax
	movsbl	%al, %edx
	movq	-5368(%rbp), %rax
	movzwl	(%rax), %eax
	cwtl
	addl	%edx, %eax
	movl	%eax, -5400(%rbp)
	cmpl	$0, -5400(%rbp)
	js	.L127
	cmpl	$144, -5400(%rbp)
	jg	.L127
	movl	-5400(%rbp), %eax
	cltq
	movzwl	yycheck(%rax,%rax), %edx
	movq	-5368(%rbp), %rax
	movzwl	(%rax), %eax
	cmpw	%ax, %dx
	jne	.L127
	movl	-5400(%rbp), %eax
	cltq
	movzbl	yytable(%rax), %eax
	movzbl	%al, %eax
	movl	%eax, -5400(%rbp)
	jmp	.L20
.L127:
	movl	-5392(%rbp), %eax
	subl	$41, %eax
	cltq
	movzwl	yydefgoto(%rax,%rax), %eax
	cwtl
	movl	%eax, -5400(%rbp)
	jmp	.L20
.L160:
	nop
.L153:
.L46:
	movl	yychar(%rip), %eax
	cmpl	$-2, %eax
	je	.L129
	movl	yychar(%rip), %eax
	cmpl	$282, %eax
	ja	.L130
	movl	yychar(%rip), %eax
	cltq
	movzbl	yytranslate(%rax), %eax
	movzbl	%al, %eax
	jmp	.L131
.L130:
	movl	$2, %eax
.L131:
	jmp	.L132
.L129:
	movl	$-2, %eax
.L132:
	movl	%eax, -5384(%rbp)
	cmpl	$0, -5396(%rbp)
	jne	.L133
	movl	yynerrs(%rip), %eax
	addl	$1, %eax
	movl	%eax, yynerrs(%rip)
	movl	$.LC89, %edi
	movl	$0, %eax
	call	yyerror
.L133:
	cmpl	$3, -5396(%rbp)
	jne	.L162
	movl	yychar(%rip), %eax
	testl	%eax, %eax
	jg	.L135
	movl	yychar(%rip), %eax
	testl	%eax, %eax
	jne	.L162
	jmp	.L28
.L135:
	movl	-5384(%rbp), %eax
	movl	$yylval, %edx
	movl	%eax, %esi
	movl	$.LC90, %edi
	call	yydestruct
	movl	$-2, yychar(%rip)
.L162:
	nop
.L136:
	movl	$3, -5396(%rbp)
	jmp	.L141
.L165:
	nop
.L141:
	movl	-5400(%rbp), %eax
	cltq
	movzbl	yypact(%rax), %eax
	movsbl	%al, %eax
	movl	%eax, -5392(%rbp)
	cmpl	$-75, -5392(%rbp)
	je	.L137
	addl	$1, -5392(%rbp)
	cmpl	$0, -5392(%rbp)
	js	.L137
	cmpl	$144, -5392(%rbp)
	jg	.L137
	movl	-5392(%rbp), %eax
	cltq
	movzwl	yycheck(%rax,%rax), %eax
	cmpw	$1, %ax
	jne	.L137
	movl	-5392(%rbp), %eax
	cltq
	movzbl	yytable(%rax), %eax
	movzbl	%al, %eax
	movl	%eax, -5392(%rbp)
	cmpl	$0, -5392(%rbp)
	jg	.L163
.L137:
	movq	-5368(%rbp), %rax
	cmpq	-5376(%rbp), %rax
	je	.L164
.L139:
	movl	-5400(%rbp), %eax
	cltq
	movzbl	yystos(%rax), %eax
	movzbl	%al, %eax
	movq	-5352(%rbp), %rdx
	movl	%eax, %esi
	movl	$.LC91, %edi
	call	yydestruct
	subq	$24, -5352(%rbp)
	subq	$2, -5368(%rbp)
	movq	-5368(%rbp), %rax
	movzwl	(%rax), %eax
	cwtl
	movl	%eax, -5400(%rbp)
	movl	yydebug(%rip), %eax
	testl	%eax, %eax
	je	.L165
	movq	-5368(%rbp), %rdx
	movq	-5376(%rbp), %rax
	movq	%rdx, %rsi
	movq	%rax, %rdi
	call	yy_stack_print
	jmp	.L165
.L163:
	nop
.L154:
	addq	$24, -5352(%rbp)
	movq	-5352(%rbp), %rax
	movq	yylval(%rip), %rdx
	movq	%rdx, (%rax)
	movq	yylval+8(%rip), %rdx
	movq	%rdx, 8(%rax)
	movq	yylval+16(%rip), %rdx
	movq	%rdx, 16(%rax)
	movl	yydebug(%rip), %eax
	testl	%eax, %eax
	je	.L142
	movq	stderr(%rip), %rax
	movl	$.LC87, %edx
	movl	$.LC80, %esi
	movq	%rax, %rdi
	movl	$0, %eax
	call	fprintf
	movl	-5392(%rbp), %eax
	cltq
	movzbl	yystos(%rax), %eax
	movzbl	%al, %ecx
	movq	stderr(%rip), %rax
	movq	-5352(%rbp), %rdx
	movl	%ecx, %esi
	movq	%rax, %rdi
	call	yy_symbol_print
	movq	stderr(%rip), %rax
	movq	%rax, %rsi
	movl	$10, %edi
	call	fputc
.L142:
	movl	-5392(%rbp), %eax
	movl	%eax, -5400(%rbp)
	jmp	.L20
.L158:
	nop
.L152:
.L31:
	movl	$0, -5388(%rbp)
	jmp	.L143
.L157:
	nop
	jmp	.L28
.L164:
	nop
.L28:
	movl	$1, -5388(%rbp)
	jmp	.L143
.L155:
	nop
	jmp	.L23
.L156:
	nop
.L23:
	movl	$.LC92, %edi
	movl	$0, %eax
	call	yyerror
	movl	$2, -5388(%rbp)
.L143:
	movl	yychar(%rip), %eax
	cmpl	$-2, %eax
	je	.L144
	movl	yychar(%rip), %eax
	cmpl	$282, %eax
	ja	.L145
	movl	yychar(%rip), %eax
	cltq
	movzbl	yytranslate(%rax), %eax
	movzbl	%al, %eax
	jmp	.L146
.L145:
	movl	$2, %eax
.L146:
	movl	%eax, -5384(%rbp)
	movl	-5384(%rbp), %eax
	movl	$yylval, %edx
	movl	%eax, %esi
	movl	$.LC93, %edi
	call	yydestruct
.L144:
	movl	-5380(%rbp), %eax
	movslq	%eax, %rdx
	movq	%rdx, %rax
	addq	%rax, %rax
	addq	%rdx, %rax
	salq	$3, %rax
	negq	%rax
	addq	%rax, -5352(%rbp)
	movl	-5380(%rbp), %eax
	cltq
	addq	%rax, %rax
	negq	%rax
	addq	%rax, -5368(%rbp)
	movl	yydebug(%rip), %eax
	testl	%eax, %eax
	je	.L148
	movq	-5368(%rbp), %rdx
	movq	-5376(%rbp), %rax
	movq	%rdx, %rsi
	movq	%rax, %rdi
	call	yy_stack_print
	jmp	.L148
.L149:
	movq	-5368(%rbp), %rax
	movzwl	(%rax), %eax
	cwtl
	cltq
	movzbl	yystos(%rax), %eax
	movzbl	%al, %eax
	movq	-5352(%rbp), %rdx
	movl	%eax, %esi
	movl	$.LC94, %edi
	call	yydestruct
	subq	$24, -5352(%rbp)
	subq	$2, -5368(%rbp)
.L148:
	movq	-5368(%rbp), %rax
	cmpq	-5376(%rbp), %rax
	jne	.L149
	leaq	-5200(%rbp), %rax
	cmpq	%rax, -5376(%rbp)
	je	.L150
	movq	-5376(%rbp), %rax
	movq	%rax, %rdi
	call	free
.L150:
	movl	-5388(%rbp), %eax
	leave
	.cfi_def_cfa 7, 8
	ret
	.cfi_endproc
.LFE5:
	.size	yyparse, .-yyparse
	.globl	yywrap
	.type	yywrap, @function
yywrap:
.LFB6:
	.cfi_startproc
	pushq	%rbp
	.cfi_def_cfa_offset 16
	.cfi_offset 6, -16
	movq	%rsp, %rbp
	.cfi_def_cfa_register 6
	popq	%rbp
	.cfi_def_cfa 7, 8
	ret
	.cfi_endproc
.LFE6:
	.size	yywrap, .-yywrap
	.ident	"GCC: (Ubuntu/Linaro 4.7.3-1ubuntu1) 4.7.3"
	.section	.note.GNU-stack,"",@progbits
